target datalayout = "e-m:e-p270:32:32-p271:32:32-p272:64:64-i64:64-i128:128-f80:128-n8:16:32:64-S128"
target triple = "x86_64-pc-linux-gnu"

%struct.__sigset_t = type { [16 x i64] }

@PyExc_OSError = external global ptr, align 8

; Function Attrs: nounwind uwtable
define internal ptr @signal_sigwait_impl(ptr noundef %0, ptr noundef byval(%struct.__sigset_t) align 8 %1) #0 {
  %3 = alloca ptr, align 8
  %4 = alloca ptr, align 8
  %5 = alloca i32, align 4
  %6 = alloca i32, align 4
  %7 = alloca ptr, align 8
  %8 = alloca i32, align 4
  store ptr %0, ptr %4, align 8, !tbaa !179
  call void @llvm.lifetime.start.p0(i64 4, ptr %5) #10
  call void @llvm.lifetime.start.p0(i64 4, ptr %6) #10
  call void @llvm.lifetime.start.p0(i64 8, ptr %7) #10
  %9 = call ptr @PyEval_SaveThread()
  store ptr %9, ptr %7, align 8, !tbaa !187
  %10 = call i32 @sigwait(ptr noundef %1, ptr noundef %6)
  store i32 %10, ptr %5, align 4, !tbaa !4
  %11 = load ptr, ptr %7, align 8, !tbaa !187
  call void @PyEval_RestoreThread(ptr noundef %11)
  call void @llvm.lifetime.end.p0(i64 8, ptr %7) #10
  %12 = load i32, ptr %5, align 4, !tbaa !4
  %13 = icmp ne i32 %12, 0
  br i1 %13, label %14, label %19

14:                                               ; preds = %2
  %15 = load i32, ptr %5, align 4, !tbaa !4
  %16 = call ptr @__errno_location() #11
  store i32 %15, ptr %16, align 4, !tbaa !4
  %17 = load ptr, ptr @PyExc_OSError, align 8, !tbaa !179
  %18 = call ptr @PyErr_SetFromErrno(ptr noundef %17)
  store ptr %18, ptr %3, align 8
  store i32 1, ptr %8, align 4
  br label %23

19:                                               ; preds = %2
  %20 = load i32, ptr %6, align 4, !tbaa !4
  %21 = sext i32 %20 to i64
  %22 = call ptr @PyLong_FromLong(i64 noundef %21)
  store ptr %22, ptr %3, align 8
  store i32 1, ptr %8, align 4
  br label %23

23:                                               ; preds = %19, %14
  call void @llvm.lifetime.end.p0(i64 4, ptr %6) #10
  call void @llvm.lifetime.end.p0(i64 4, ptr %5) #10
  %24 = load ptr, ptr %3, align 8
  ret ptr %24
}

; Function Attrs: nounwind uwtable
define internal ptr @signal_sigwait(ptr noundef %0, ptr noundef %1) #0 {
  %3 = alloca ptr, align 8
  %4 = alloca ptr, align 8
  %5 = alloca ptr, align 8
  %6 = alloca %struct.__sigset_t, align 8
  store ptr %0, ptr %3, align 8, !tbaa !179
  store ptr %1, ptr %4, align 8, !tbaa !179
  call void @llvm.lifetime.start.p0(i64 8, ptr %5) #10
  store ptr null, ptr %5, align 8, !tbaa !179
  call void @llvm.lifetime.start.p0(i64 128, ptr %6) #10
  %7 = load ptr, ptr %4, align 8, !tbaa !179
  %8 = call i32 @_Py_Sigset_Converter(ptr noundef %7, ptr noundef %6)
  %9 = icmp ne i32 %8, 0
  br i1 %9, label %11, label %10

10:                                               ; preds = %2
  br label %14

11:                                               ; preds = %2
  %12 = load ptr, ptr %3, align 8, !tbaa !179
  %13 = call ptr @signal_sigwait_impl(ptr noundef %12, ptr noundef byval(%struct.__sigset_t) align 8 %6)
  store ptr %13, ptr %5, align 8, !tbaa !179
  br label %14

14:                                               ; preds = %11, %10
  %15 = load ptr, ptr %5, align 8, !tbaa !179
  call void @llvm.lifetime.end.p0(i64 128, ptr %6) #10
  call void @llvm.lifetime.end.p0(i64 8, ptr %5) #10
  ret ptr %15
}