; Function Attrs: nounwind uwtable
define internal ptr @signal_sigwait(ptr readnone captures(none) %0, ptr noundef %1) #2 {
  %3 = alloca i32, align 4
  %4 = alloca %struct.__sigset_t, align 8
  %5 = alloca %struct.__sigset_t, align 8
  call void @llvm.lifetime.start.p0(i64 128, ptr nonnull %5) #15
  %6 = call i32 @_Py_Sigset_Converter(ptr noundef %1, ptr noundef nonnull %5) #15
  %.not = icmp eq i32 %6, 0
  br i1 %.not, label %18, label %7

7:                                                ; preds = %2
  call void @llvm.lifetime.start.p0(i64 128, ptr nonnull %4)
  call void @llvm.memcpy.p0.p0.i64(ptr noundef nonnull align 8 dereferenceable(128) %4, ptr noundef nonnull align 8 dereferenceable(128) %5, i64 128, i1 false)
  call void @llvm.lifetime.start.p0(i64 4, ptr nonnull %3) #15
  %8 = call ptr @PyEval_SaveThread() #15
  %9 = call i32 @sigwait(ptr noundef nonnull align 8 %4, ptr noundef nonnull %3) #15
  call void @PyEval_RestoreThread(ptr noundef %8) #15
  %.not.i = icmp eq i32 %9, 0
  br i1 %.not.i, label %14, label %10

10:                                               ; preds = %7
  %11 = tail call ptr @__errno_location() #16
  store i32 %9, ptr %11, align 4, !tbaa !199
  %12 = load ptr, ptr @PyExc_OSError, align 8, !tbaa !176
  %13 = call ptr @PyErr_SetFromErrno(ptr noundef %12) #15
  br label %signal_sigwait_impl.exit

14:                                               ; preds = %7
  %15 = load i32, ptr %3, align 4, !tbaa !199
  %16 = sext i32 %15 to i64
  %17 = call ptr @PyLong_FromLong(i64 noundef %16) #15
  br label %signal_sigwait_impl.exit

signal_sigwait_impl.exit:                         ; preds = %10, %14
  %.0.i = phi ptr [ %13, %10 ], [ %17, %14 ]
  call void @llvm.lifetime.end.p0(i64 4, ptr nonnull %3) #15
  call void @llvm.lifetime.end.p0(i64 128, ptr nonnull %4)
  br label %18

18:                                               ; preds = %2, %signal_sigwait_impl.exit
  %.0 = phi ptr [ %.0.i, %signal_sigwait_impl.exit ], [ null, %2 ]
  call void @llvm.lifetime.end.p0(i64 128, ptr nonnull %5) #15
  ret ptr %.0
}